target datalayout = "e-m:e-p270:32:32-p271:32:32-p272:64:64-i64:64-i128:128-f80:128-n8:16:32:64-S128"
target triple = "x86_64-pc-linux-gnu"

%struct.WebPHeaderStructure = type { ptr, i64, i32, i64, ptr, i64, i64, i64, i32 }
%struct.WebPDecParams = type { ptr, ptr, ptr, ptr, i32, ptr, ptr, ptr, ptr, ptr, ptr, ptr, ptr, ptr }
%struct.VP8Io = type { i32, i32, i32, i32, i32, ptr, ptr, ptr, i32, i32, ptr, ptr, ptr, ptr, i32, i64, ptr, i32, i32, i32, i32, i32, i32, i32, i32, i32, ptr }
%struct.VP8Decoder = type { i32, i32, ptr, %struct.VP8BitReader, i32, %struct.VP8FrameHeader, %struct.VP8PictureHeader, %struct.VP8FilterHeader, %struct.VP8SegmentHeader, %struct.WebPWorker, i32, i32, i32, %struct.VP8ThreadContext, i32, i32, i32, i32, i32, i32, i32, [8 x %struct.VP8BitReader], i32, %struct.VP8Random, [4 x %struct.VP8QuantMatrix], %struct.VP8Proba, i32, i8, ptr, [4 x i8], ptr, ptr, ptr, ptr, ptr, ptr, ptr, i32, i32, ptr, i64, i32, i32, ptr, i32, [4 x [2 x %struct.VP8FInfo]], ptr, ptr, i64, i32, ptr, ptr, ptr, i32 }
%struct.VP8BitReader = type { i64, i32, i32, ptr, ptr, ptr, i32 }
%struct.VP8FrameHeader = type { i8, i8, i8, i32 }
%struct.VP8PictureHeader = type { i16, i16, i8, i8, i8, i8 }
%struct.VP8FilterHeader = type { i32, i32, i32, i32, [4 x i32], [4 x i32] }
%struct.VP8SegmentHeader = type { i32, i32, i32, [4 x i8], [4 x i8] }
%struct.WebPWorker = type { ptr, i32, ptr, ptr, ptr, i32 }
%struct.VP8ThreadContext = type { i32, i32, i32, ptr, ptr, %struct.VP8Io }
%struct.VP8Random = type { i32, i32, [55 x i32], i32 }
%struct.VP8QuantMatrix = type { [2 x i32], [2 x i32], [2 x i32], i32, i32 }
%struct.VP8Proba = type { [3 x i8], [4 x [8 x %struct.VP8BandProbas]], [4 x [17 x ptr]] }
%struct.VP8BandProbas = type { [3 x [11 x i8]] }
%struct.VP8FInfo = type { i8, i8, i8, i8 }
%struct.VP8LDecoder = type { i32, i32, ptr, ptr, ptr, ptr, %struct.VP8LBitReader, i32, %struct.VP8LBitReader, i32, i32, i32, i32, i32, i32, %struct.VP8LMetadata, i32, [4 x %struct.VP8LTransform], i32, ptr, ptr }
%struct.VP8LBitReader = type { i64, ptr, i64, i64, i32, i32 }
%struct.VP8LMetadata = type { i32, %struct.VP8LColorCache, %struct.VP8LColorCache, i32, i32, i32, ptr, i32, ptr, %struct.HuffmanTables }
%struct.VP8LColorCache = type { ptr, i32, i32 }
%struct.HuffmanTables = type { %struct.HuffmanTablesSegment, ptr }
%struct.HuffmanTablesSegment = type { ptr, ptr, ptr, i32 }
%struct.VP8LTransform = type { i32, i32, i32, i32, ptr }
%struct.WebPDecoderOptions = type { i32, i32, i32, i32, i32, i32, i32, i32, i32, i32, i32, i32, i32, i32, [5 x i32] }

; Function Attrs: inlinehint nounwind uwtable
define internal i32 @VP8InitIo(ptr noundef %0) #3 {
  %2 = alloca ptr, align 8
  store ptr %0, ptr %2, align 8, !tbaa !109
  %3 = load ptr, ptr %2, align 8, !tbaa !109
  %4 = call i32 @VP8InitIoInternal(ptr noundef %3, i32 noundef 528)
  ret i32 %4
}

; Function Attrs: nounwind uwtable
define hidden i32 @WebPParseHeaders(ptr noundef %0) #0 {
  %2 = alloca ptr, align 8
  %3 = alloca i32, align 4
  %4 = alloca i32, align 4
  store ptr %0, ptr %2, align 8, !tbaa !3
  call void @llvm.lifetime.start.p0(i64 4, ptr %3) #7
  call void @llvm.lifetime.start.p0(i64 4, ptr %4) #7
  store i32 0, ptr %4, align 4, !tbaa !7
  %5 = load ptr, ptr %2, align 8, !tbaa !3
  %6 = getelementptr inbounds nuw %struct.WebPHeaderStructure, ptr %5, i32 0, i32 0
  %7 = load ptr, ptr %6, align 8, !tbaa !9
  %8 = load ptr, ptr %2, align 8, !tbaa !3
  %9 = getelementptr inbounds nuw %struct.WebPHeaderStructure, ptr %8, i32 0, i32 1
  %10 = load i64, ptr %9, align 8, !tbaa !13
  %11 = load ptr, ptr %2, align 8, !tbaa !3
  %12 = call i32 @ParseHeadersInternal(ptr noundef %7, i64 noundef %10, ptr noundef null, ptr noundef null, ptr noundef null, ptr noundef %4, ptr noundef null, ptr noundef %11)
  store volatile i32 %12, ptr %3, align 4, !tbaa !7
  %13 = load volatile i32, ptr %3, align 4, !tbaa !7
  %14 = icmp eq i32 %13, 0
  br i1 %14, label %18, label %15

15:                                               ; preds = %1
  %16 = load volatile i32, ptr %3, align 4, !tbaa !7
  %17 = icmp eq i32 %16, 7
  br i1 %17, label %18, label %23

18:                                               ; preds = %15, %1
  %19 = load i32, ptr %4, align 4, !tbaa !7
  %20 = icmp ne i32 %19, 0
  br i1 %20, label %21, label %22

21:                                               ; preds = %18
  store volatile i32 4, ptr %3, align 4, !tbaa !7
  br label %22

22:                                               ; preds = %21, %18
  br label %23

23:                                               ; preds = %22, %15
  %24 = load volatile i32, ptr %3, align 4, !tbaa !7
  call void @llvm.lifetime.end.p0(i64 4, ptr %4) #7
  call void @llvm.lifetime.end.p0(i64 4, ptr %3) #7
  ret i32 %24
}

; Function Attrs: nounwind uwtable
define internal i32 @DecodeInto(ptr noundef %0, i64 noundef %1, ptr noundef %2) #0 {
  %4 = alloca i32, align 4
  %5 = alloca ptr, align 8
  %6 = alloca i64, align 8
  %7 = alloca ptr, align 8
  %8 = alloca i32, align 4
  %9 = alloca %struct.VP8Io, align 8
  %10 = alloca %struct.WebPHeaderStructure, align 8
  %11 = alloca i32, align 4
  %12 = alloca ptr, align 8
  %13 = alloca ptr, align 8
  store ptr %0, ptr %5, align 8, !tbaa !14
  store i64 %1, ptr %6, align 8, !tbaa !15
  store ptr %2, ptr %7, align 8, !tbaa !25
  call void @llvm.lifetime.start.p0(i64 4, ptr %8) #7
  call void @llvm.lifetime.start.p0(i64 160, ptr %9) #7
  call void @llvm.lifetime.start.p0(i64 72, ptr %10) #7
  %14 = load ptr, ptr %5, align 8, !tbaa !14
  %15 = getelementptr inbounds nuw %struct.WebPHeaderStructure, ptr %10, i32 0, i32 0
  store ptr %14, ptr %15, align 8, !tbaa !9
  %16 = load i64, ptr %6, align 8, !tbaa !15
  %17 = getelementptr inbounds nuw %struct.WebPHeaderStructure, ptr %10, i32 0, i32 1
  store i64 %16, ptr %17, align 8, !tbaa !13
  %18 = getelementptr inbounds nuw %struct.WebPHeaderStructure, ptr %10, i32 0, i32 2
  store i32 1, ptr %18, align 8, !tbaa !18
  %19 = call i32 @WebPParseHeaders(ptr noundef %10)
  store i32 %19, ptr %8, align 4, !tbaa !7
  %20 = load i32, ptr %8, align 4, !tbaa !7
  %21 = icmp ne i32 %20, 0
  br i1 %21, label %22, label %24

22:                                               ; preds = %3
  %23 = load i32, ptr %8, align 4, !tbaa !7
  store i32 %23, ptr %4, align 4
  store i32 1, ptr %11, align 4
  br label %178

24:                                               ; preds = %3
  %25 = call i32 @VP8InitIo(ptr noundef %9)
  %26 = icmp ne i32 %25, 0
  br i1 %26, label %28, label %27

27:                                               ; preds = %24
  store i32 2, ptr %4, align 4
  store i32 1, ptr %11, align 4
  br label %178

28:                                               ; preds = %24
  %29 = getelementptr inbounds nuw %struct.WebPHeaderStructure, ptr %10, i32 0, i32 0
  %30 = load ptr, ptr %29, align 8, !tbaa !9
  %31 = getelementptr inbounds nuw %struct.WebPHeaderStructure, ptr %10, i32 0, i32 3
  %32 = load i64, ptr %31, align 8, !tbaa !23
  %33 = getelementptr inbounds nuw i8, ptr %30, i64 %32
  %34 = getelementptr inbounds nuw %struct.VP8Io, ptr %9, i32 0, i32 16
  store ptr %33, ptr %34, align 8, !tbaa !37
  %35 = getelementptr inbounds nuw %struct.WebPHeaderStructure, ptr %10, i32 0, i32 1
  %36 = load i64, ptr %35, align 8, !tbaa !13
  %37 = getelementptr inbounds nuw %struct.WebPHeaderStructure, ptr %10, i32 0, i32 3
  %38 = load i64, ptr %37, align 8, !tbaa !23
  %39 = sub i64 %36, %38
  %40 = getelementptr inbounds nuw %struct.VP8Io, ptr %9, i32 0, i32 15
  store i64 %39, ptr %40, align 8, !tbaa !39
  %41 = load ptr, ptr %7, align 8, !tbaa !25
  call void @WebPInitCustomIo(ptr noundef %41, ptr noundef %9)
  %42 = getelementptr inbounds nuw %struct.WebPHeaderStructure, ptr %10, i32 0, i32 8
  %43 = load i32, ptr %42, align 8, !tbaa !21
  %44 = icmp ne i32 %43, 0
  br i1 %44, label %109, label %45

45:                                               ; preds = %28
  call void @llvm.lifetime.start.p0(i64 8, ptr %12) #7
  %46 = call ptr @VP8New()
  store ptr %46, ptr %12, align 8, !tbaa !40
  %47 = load ptr, ptr %12, align 8, !tbaa !40
  %48 = icmp eq ptr %47, null
  br i1 %48, label %49, label %50

49:                                               ; preds = %45
  store i32 1, ptr %4, align 4
  store i32 1, ptr %11, align 4
  br label %106

50:                                               ; preds = %45
  %51 = getelementptr inbounds nuw %struct.WebPHeaderStructure, ptr %10, i32 0, i32 4
  %52 = load ptr, ptr %51, align 8, !tbaa !24
  %53 = load ptr, ptr %12, align 8, !tbaa !40
  %54 = getelementptr inbounds nuw %struct.VP8Decoder, ptr %53, i32 0, i32 47
  store ptr %52, ptr %54, align 8, !tbaa !42
  %55 = getelementptr inbounds nuw %struct.WebPHeaderStructure, ptr %10, i32 0, i32 5
  %56 = load i64, ptr %55, align 8, !tbaa !55
  %57 = load ptr, ptr %12, align 8, !tbaa !40
  %58 = getelementptr inbounds nuw %struct.VP8Decoder, ptr %57, i32 0, i32 48
  store i64 %56, ptr %58, align 8, !tbaa !56
  %59 = load ptr, ptr %12, align 8, !tbaa !40
  %60 = call i32 @VP8GetHeaders(ptr noundef %59, ptr noundef %9)
  %61 = icmp ne i32 %60, 0
  br i1 %61, label %66, label %62

62:                                               ; preds = %50
  %63 = load ptr, ptr %12, align 8, !tbaa !40
  %64 = getelementptr inbounds nuw %struct.VP8Decoder, ptr %63, i32 0, i32 0
  %65 = load i32, ptr %64, align 8, !tbaa !57
  store i32 %65, ptr %8, align 4, !tbaa !7
  br label %104

66:                                               ; preds = %50
  %67 = getelementptr inbounds nuw %struct.VP8Io, ptr %9, i32 0, i32 0
  %68 = load i32, ptr %67, align 8, !tbaa !58
  %69 = getelementptr inbounds nuw %struct.VP8Io, ptr %9, i32 0, i32 1
  %70 = load i32, ptr %69, align 4, !tbaa !59
  %71 = load ptr, ptr %7, align 8, !tbaa !25
  %72 = getelementptr inbounds nuw %struct.WebPDecParams, ptr %71, i32 0, i32 5
  %73 = load ptr, ptr %72, align 8, !tbaa !60
  %74 = load ptr, ptr %7, align 8, !tbaa !25
  %75 = getelementptr inbounds nuw %struct.WebPDecParams, ptr %74, i32 0, i32 0
  %76 = load ptr, ptr %75, align 8, !tbaa !27
  %77 = call i32 @WebPAllocateDecBuffer(i32 noundef %68, i32 noundef %70, ptr noundef %73, ptr noundef %76)
  store i32 %77, ptr %8, align 4, !tbaa !7
  %78 = load i32, ptr %8, align 4, !tbaa !7
  %79 = icmp eq i32 %78, 0
  br i1 %79, label %80, label %103

80:                                               ; preds = %66
  %81 = load ptr, ptr %7, align 8, !tbaa !25
  %82 = getelementptr inbounds nuw %struct.WebPDecParams, ptr %81, i32 0, i32 5
  %83 = load ptr, ptr %82, align 8, !tbaa !60
  %84 = getelementptr inbounds nuw %struct.VP8Io, ptr %9, i32 0, i32 0
  %85 = load i32, ptr %84, align 8, !tbaa !58
  %86 = getelementptr inbounds nuw %struct.VP8Io, ptr %9, i32 0, i32 1
  %87 = load i32, ptr %86, align 4, !tbaa !59
  %88 = call i32 @VP8GetThreadMethod(ptr noundef %83, ptr noundef %10, i32 noundef %85, i32 noundef %87)
  %89 = load ptr, ptr %12, align 8, !tbaa !40
  %90 = getelementptr inbounds nuw %struct.VP8Decoder, ptr %89, i32 0, i32 10
  store i32 %88, ptr %90, align 8, !tbaa !61
  %91 = load ptr, ptr %7, align 8, !tbaa !25
  %92 = getelementptr inbounds nuw %struct.WebPDecParams, ptr %91, i32 0, i32 5
  %93 = load ptr, ptr %92, align 8, !tbaa !60
  %94 = load ptr, ptr %12, align 8, !tbaa !40
  call void @VP8InitDithering(ptr noundef %93, ptr noundef %94)
  %95 = load ptr, ptr %12, align 8, !tbaa !40
  %96 = call i32 @VP8Decode(ptr noundef %95, ptr noundef %9)
  %97 = icmp ne i32 %96, 0
  br i1 %97, label %102, label %98

98:                                               ; preds = %80
  %99 = load ptr, ptr %12, align 8, !tbaa !40
  %100 = getelementptr inbounds nuw %struct.VP8Decoder, ptr %99, i32 0, i32 0
  %101 = load i32, ptr %100, align 8, !tbaa !57
  store i32 %101, ptr %8, align 4, !tbaa !7
  br label %102

102:                                              ; preds = %98, %80
  br label %103

103:                                              ; preds = %102, %66
  br label %104

104:                                              ; preds = %103, %62
  %105 = load ptr, ptr %12, align 8, !tbaa !40
  call void @VP8Delete(ptr noundef %105)
  store i32 0, ptr %11, align 4
  br label %106

106:                                              ; preds = %104, %49
  call void @llvm.lifetime.end.p0(i64 8, ptr %12) #7
  %107 = load i32, ptr %11, align 4
  switch i32 %107, label %178 [
    i32 0, label %108
  ]

108:                                              ; preds = %106
  br label %151

109:                                              ; preds = %28
  call void @llvm.lifetime.start.p0(i64 8, ptr %13) #7
  %110 = call ptr @VP8LNew()
  store ptr %110, ptr %13, align 8, !tbaa !62
  %111 = load ptr, ptr %13, align 8, !tbaa !62
  %112 = icmp eq ptr %111, null
  br i1 %112, label %113, label %114

113:                                              ; preds = %109
  store i32 1, ptr %4, align 4
  store i32 1, ptr %11, align 4
  br label %148

114:                                              ; preds = %109
  %115 = load ptr, ptr %13, align 8, !tbaa !62
  %116 = call i32 @VP8LDecodeHeader(ptr noundef %115, ptr noundef %9)
  %117 = icmp ne i32 %116, 0
  br i1 %117, label %122, label %118

118:                                              ; preds = %114
  %119 = load ptr, ptr %13, align 8, !tbaa !62
  %120 = getelementptr inbounds nuw %struct.VP8LDecoder, ptr %119, i32 0, i32 0
  %121 = load i32, ptr %120, align 8, !tbaa !64
  store i32 %121, ptr %8, align 4, !tbaa !7
  br label %146

122:                                              ; preds = %114
  %123 = getelementptr inbounds nuw %struct.VP8Io, ptr %9, i32 0, i32 0
  %124 = load i32, ptr %123, align 8, !tbaa !58
  %125 = getelementptr inbounds nuw %struct.VP8Io, ptr %9, i32 0, i32 1
  %126 = load i32, ptr %125, align 4, !tbaa !59
  %127 = load ptr, ptr %7, align 8, !tbaa !25
  %128 = getelementptr inbounds nuw %struct.WebPDecParams, ptr %127, i32 0, i32 5
  %129 = load ptr, ptr %128, align 8, !tbaa !60
  %130 = load ptr, ptr %7, align 8, !tbaa !25
  %131 = getelementptr inbounds nuw %struct.WebPDecParams, ptr %130, i32 0, i32 0
  %132 = load ptr, ptr %131, align 8, !tbaa !27
  %133 = call i32 @WebPAllocateDecBuffer(i32 noundef %124, i32 noundef %126, ptr noundef %129, ptr noundef %132)
  store i32 %133, ptr %8, align 4, !tbaa !7
  %134 = load i32, ptr %8, align 4, !tbaa !7
  %135 = icmp eq i32 %134, 0
  br i1 %135, label %136, label %145

136:                                              ; preds = %122
  %137 = load ptr, ptr %13, align 8, !tbaa !62
  %138 = call i32 @VP8LDecodeImage(ptr noundef %137)
  %139 = icmp ne i32 %138, 0
  br i1 %139, label %144, label %140

140:                                              ; preds = %136
  %141 = load ptr, ptr %13, align 8, !tbaa !62
  %142 = getelementptr inbounds nuw %struct.VP8LDecoder, ptr %141, i32 0, i32 0
  %143 = load i32, ptr %142, align 8, !tbaa !64
  store i32 %143, ptr %8, align 4, !tbaa !7
  br label %144

144:                                              ; preds = %140, %136
  br label %145

145:                                              ; preds = %144, %122
  br label %146

146:                                              ; preds = %145, %118
  %147 = load ptr, ptr %13, align 8, !tbaa !62
  call void @VP8LDelete(ptr noundef %147)
  store i32 0, ptr %11, align 4
  br label %148

148:                                              ; preds = %146, %113
  call void @llvm.lifetime.end.p0(i64 8, ptr %13) #7
  %149 = load i32, ptr %11, align 4
  switch i32 %149, label %178 [
    i32 0, label %150
  ]

150:                                              ; preds = %148
  br label %151

151:                                              ; preds = %150, %108
  %152 = load i32, ptr %8, align 4, !tbaa !7
  %153 = icmp ne i32 %152, 0
  br i1 %153, label %154, label %158

154:                                              ; preds = %151
  %155 = load ptr, ptr %7, align 8, !tbaa !25
  %156 = getelementptr inbounds nuw %struct.WebPDecParams, ptr %155, i32 0, i32 0
  %157 = load ptr, ptr %156, align 8, !tbaa !27
  call void @WebPFreeDecBuffer(ptr noundef %157)
  br label %176

158:                                              ; preds = %151
  %159 = load ptr, ptr %7, align 8, !tbaa !25
  %160 = getelementptr inbounds nuw %struct.WebPDecParams, ptr %159, i32 0, i32 5
  %161 = load ptr, ptr %160, align 8, !tbaa !60
  %162 = icmp ne ptr %161, null
  br i1 %162, label %163, label %175

163:                                              ; preds = %158
  %164 = load ptr, ptr %7, align 8, !tbaa !25
  %165 = getelementptr inbounds nuw %struct.WebPDecParams, ptr %164, i32 0, i32 5
  %166 = load ptr, ptr %165, align 8, !tbaa !60
  %167 = getelementptr inbounds nuw %struct.WebPDecoderOptions, ptr %166, i32 0, i32 12
  %168 = load i32, ptr %167, align 4, !tbaa !74
  %169 = icmp ne i32 %168, 0
  br i1 %169, label %170, label %175

170:                                              ; preds = %163
  %171 = load ptr, ptr %7, align 8, !tbaa !25
  %172 = getelementptr inbounds nuw %struct.WebPDecParams, ptr %171, i32 0, i32 0
  %173 = load ptr, ptr %172, align 8, !tbaa !27
  %174 = call i32 @WebPFlipBuffer(ptr noundef %173)
  store i32 %174, ptr %8, align 4, !tbaa !7
  br label %175

175:                                              ; preds = %170, %163, %158
  br label %176

176:                                              ; preds = %175, %154
  %177 = load i32, ptr %8, align 4, !tbaa !7
  store i32 %177, ptr %4, align 4
  store i32 1, ptr %11, align 4
  br label %178

178:                                              ; preds = %176, %148, %106, %27, %22
  call void @llvm.lifetime.end.p0(i64 72, ptr %10) #7
  call void @llvm.lifetime.end.p0(i64 160, ptr %9) #7
  call void @llvm.lifetime.end.p0(i64 4, ptr %8) #7
  %179 = load i32, ptr %4, align 4
  ret i32 %179
}