; Function Attrs: nounwind uwtable
define internal fastcc i32 @DecodeInto(ptr noundef %0, i64 noundef %1, ptr noundef nonnull %2) unnamed_addr #0 {
  %4 = alloca i32, align 4
  %5 = alloca i32, align 4
  %6 = alloca %struct.VP8Io, align 8
  %7 = alloca %struct.WebPHeaderStructure, align 8
  call void @llvm.lifetime.start.p0(i64 160, ptr nonnull %6) #10
  call void @llvm.lifetime.start.p0(i64 72, ptr nonnull %7) #10
  store ptr %0, ptr %7, align 8, !tbaa !7
  %8 = getelementptr inbounds nuw i8, ptr %7, i64 8
  store i64 %1, ptr %8, align 8, !tbaa !12
  %9 = getelementptr inbounds nuw i8, ptr %7, i64 16
  store i32 1, ptr %9, align 8, !tbaa !15
  call void @llvm.lifetime.start.p0(i64 4, ptr nonnull %4)
  call void @llvm.lifetime.start.p0(i64 4, ptr nonnull %5) #10
  store i32 0, ptr %5, align 4, !tbaa !3
  %10 = call fastcc i32 @ParseHeadersInternal(ptr noundef %0, i64 noundef %1, ptr noundef null, ptr noundef null, ptr noundef null, ptr noundef %5, ptr noundef null, ptr noundef nonnull %7)
  store volatile i32 %10, ptr %4, align 4, !tbaa !3
  %.0..0..0..0..0..0..i = load volatile i32, ptr %4, align 4, !tbaa !3
  %11 = icmp eq i32 %.0..0..0..0..0..0..i, 0
  br i1 %11, label %16, label %12

12:                                               ; preds = %3
  %.0..0..0..0..0..0.2.i = load volatile i32, ptr %4, align 4, !tbaa !3
  %13 = icmp eq i32 %.0..0..0..0..0..0.2.i, 7
  %14 = load i32, ptr %5, align 4
  %15 = icmp ne i32 %14, 0
  %or.cond.i = select i1 %13, i1 %15, i1 false
  br i1 %or.cond.i, label %17, label %WebPParseHeaders.exit

16:                                               ; preds = %3
  %.old.i = load i32, ptr %5, align 4, !tbaa !3
  %.old1.not.i = icmp eq i32 %.old.i, 0
  br i1 %.old1.not.i, label %WebPParseHeaders.exit, label %17

17:                                               ; preds = %16, %12
  store volatile i32 4, ptr %4, align 4, !tbaa !3
  br label %WebPParseHeaders.exit

WebPParseHeaders.exit:                            ; preds = %12, %16, %17
  %.0..0..0..0..0..0.3.i = load volatile i32, ptr %4, align 4, !tbaa !3
  call void @llvm.lifetime.end.p0(i64 4, ptr nonnull %5) #10
  call void @llvm.lifetime.end.p0(i64 4, ptr nonnull %4)
  %.not = icmp eq i32 %.0..0..0..0..0..0.3.i, 0
  br i1 %.not, label %18, label %.thread

18:                                               ; preds = %WebPParseHeaders.exit
  %19 = call i32 @VP8InitIoInternal(ptr noundef nonnull %6, i32 noundef 528) #10
  %.not51 = icmp eq i32 %19, 0
  br i1 %.not51, label %.thread, label %20

20:                                               ; preds = %18
  %21 = load ptr, ptr %7, align 8, !tbaa !7
  %22 = getelementptr inbounds nuw i8, ptr %7, i64 24
  %23 = load i64, ptr %22, align 8, !tbaa !21
  %24 = getelementptr inbounds nuw i8, ptr %21, i64 %23
  %25 = getelementptr inbounds nuw i8, ptr %6, i64 104
  store ptr %24, ptr %25, align 8, !tbaa !31
  %26 = load i64, ptr %8, align 8, !tbaa !12
  %27 = sub i64 %26, %23
  %28 = getelementptr inbounds nuw i8, ptr %6, i64 96
  store i64 %27, ptr %28, align 8, !tbaa !33
  call void @WebPInitCustomIo(ptr noundef nonnull %2, ptr noundef nonnull %6) #10
  %29 = getelementptr inbounds nuw i8, ptr %7, i64 64
  %30 = load i32, ptr %29, align 8, !tbaa !19
  %.not52 = icmp eq i32 %30, 0
  br i1 %.not52, label %31, label %60

31:                                               ; preds = %20
  %32 = call ptr @VP8New() #10
  %.not55 = icmp eq ptr %32, null
  br i1 %.not55, label %.thread, label %33

33:                                               ; preds = %31
  %34 = getelementptr inbounds nuw i8, ptr %7, i64 32
  %35 = load ptr, ptr %34, align 8, !tbaa !22
  %36 = getelementptr inbounds nuw i8, ptr %32, i64 2968
  store ptr %35, ptr %36, align 8, !tbaa !34
  %37 = getelementptr inbounds nuw i8, ptr %7, i64 40
  %38 = load i64, ptr %37, align 8, !tbaa !47
  %39 = getelementptr inbounds nuw i8, ptr %32, i64 2976
  store i64 %38, ptr %39, align 8, !tbaa !48
  %40 = call i32 @VP8GetHeaders(ptr noundef nonnull %32, ptr noundef nonnull %6) #10
  %.not53 = icmp eq i32 %40, 0
  br i1 %.not53, label %.sink.split, label %41

41:                                               ; preds = %33
  %42 = load i32, ptr %6, align 8, !tbaa !49
  %43 = getelementptr inbounds nuw i8, ptr %6, i64 4
  %44 = load i32, ptr %43, align 4, !tbaa !50
  %45 = getelementptr inbounds nuw i8, ptr %2, i64 40
  %46 = load ptr, ptr %45, align 8, !tbaa !51
  %47 = load ptr, ptr %2, align 8, !tbaa !23
  %48 = call i32 @WebPAllocateDecBuffer(i32 noundef %42, i32 noundef %44, ptr noundef %46, ptr noundef %47) #10
  %49 = icmp eq i32 %48, 0
  br i1 %49, label %50, label %59

50:                                               ; preds = %41
  %51 = load ptr, ptr %45, align 8, !tbaa !51
  %52 = load i32, ptr %6, align 8, !tbaa !49
  %53 = load i32, ptr %43, align 4, !tbaa !50
  %54 = call i32 @VP8GetThreadMethod(ptr noundef %51, ptr noundef nonnull %7, i32 noundef %52, i32 noundef %53) #10
  %55 = getelementptr inbounds nuw i8, ptr %32, i64 200
  store i32 %54, ptr %55, align 8, !tbaa !52
  %56 = load ptr, ptr %45, align 8, !tbaa !51
  call void @VP8InitDithering(ptr noundef %56, ptr noundef nonnull %32) #10
  %57 = call i32 @VP8Decode(ptr noundef nonnull %32, ptr noundef nonnull %6) #10
  %.not54 = icmp eq i32 %57, 0
  br i1 %.not54, label %.sink.split, label %59

.sink.split:                                      ; preds = %50, %33
  %58 = load i32, ptr %32, align 8, !tbaa !53
  br label %59

59:                                               ; preds = %.sink.split, %50, %41
  %.139 = phi i32 [ 0, %50 ], [ %48, %41 ], [ %58, %.sink.split ]
  call void @VP8Delete(ptr noundef nonnull %32) #10
  br label %77

60:                                               ; preds = %20
  %61 = call ptr @VP8LNew() #10
  %.not58 = icmp eq ptr %61, null
  br i1 %.not58, label %.thread, label %62

62:                                               ; preds = %60
  %63 = call i32 @VP8LDecodeHeader(ptr noundef nonnull %61, ptr noundef nonnull %6) #10
  %.not56 = icmp eq i32 %63, 0
  br i1 %.not56, label %.sink.split65, label %64

64:                                               ; preds = %62
  %65 = load i32, ptr %6, align 8, !tbaa !49
  %66 = getelementptr inbounds nuw i8, ptr %6, i64 4
  %67 = load i32, ptr %66, align 4, !tbaa !50
  %68 = getelementptr inbounds nuw i8, ptr %2, i64 40
  %69 = load ptr, ptr %68, align 8, !tbaa !51
  %70 = load ptr, ptr %2, align 8, !tbaa !23
  %71 = call i32 @WebPAllocateDecBuffer(i32 noundef %65, i32 noundef %67, ptr noundef %69, ptr noundef %70) #10
  %72 = icmp eq i32 %71, 0
  br i1 %72, label %73, label %76

73:                                               ; preds = %64
  %74 = call i32 @VP8LDecodeImage(ptr noundef nonnull %61) #10
  %.not57 = icmp eq i32 %74, 0
  br i1 %.not57, label %.sink.split65, label %76

.sink.split65:                                    ; preds = %73, %62
  %75 = load i32, ptr %61, align 8, !tbaa !54
  br label %76

76:                                               ; preds = %.sink.split65, %73, %64
  %.4 = phi i32 [ 0, %73 ], [ %71, %64 ], [ %75, %.sink.split65 ]
  call void @VP8LDelete(ptr noundef nonnull %61) #10
  br label %77

77:                                               ; preds = %76, %59
  %.240 = phi i32 [ %.4, %76 ], [ %.139, %59 ]
  %.not59 = icmp eq i32 %.240, 0
  br i1 %.not59, label %80, label %78

78:                                               ; preds = %77
  %79 = load ptr, ptr %2, align 8, !tbaa !23
  call void @WebPFreeDecBuffer(ptr noundef %79) #10
  br label %.thread

80:                                               ; preds = %77
  %81 = getelementptr inbounds nuw i8, ptr %2, i64 40
  %82 = load ptr, ptr %81, align 8, !tbaa !51
  %.not60 = icmp eq ptr %82, null
  br i1 %.not60, label %.thread, label %83

83:                                               ; preds = %80
  %84 = getelementptr inbounds nuw i8, ptr %82, i64 48
  %85 = load i32, ptr %84, align 4, !tbaa !65
  %.not61 = icmp eq i32 %85, 0
  br i1 %.not61, label %.thread, label %86

86:                                               ; preds = %83
  %87 = load ptr, ptr %2, align 8, !tbaa !23
  %88 = call i32 @WebPFlipBuffer(ptr noundef %87) #10
  br label %.thread

.thread:                                          ; preds = %60, %31, %78, %86, %83, %80, %18, %WebPParseHeaders.exit
  %.0 = phi i32 [ %.0..0..0..0..0..0.3.i, %WebPParseHeaders.exit ], [ 2, %18 ], [ %.240, %78 ], [ %88, %86 ], [ 0, %83 ], [ 0, %80 ], [ 1, %31 ], [ 1, %60 ]
  call void @llvm.lifetime.end.p0(i64 72, ptr nonnull %7) #10
  call void @llvm.lifetime.end.p0(i64 160, ptr nonnull %6) #10
  ret i32 %.0
}